; Function Attrs: mustprogress uwtable
define dso_local void @_ZN30btBox2dBox2dCollisionAlgorithmC2EP20btPersistentManifoldRK36btCollisionAlgorithmConstructionInfoPK24btCollisionObjectWrapperS7_(ptr noundef nonnull align 8 dereferenceable(32) %0, ptr noundef %1, ptr noundef nonnull align 8 dereferenceable(16) %2, ptr noundef %3, ptr noundef %4) unnamed_addr #0 align 2 personality ptr @__gxx_personality_v0 {
  tail call void @_ZN30btActivatingCollisionAlgorithmC2ERK36btCollisionAlgorithmConstructionInfoPK24btCollisionObjectWrapperS5_(ptr noundef nonnull align 8 dereferenceable(16) %0, ptr noundef nonnull align 8 dereferenceable(16) %2, ptr noundef %3, ptr noundef %4)
  store ptr getelementptr inbounds nuw inrange(-16, 40) (i8, ptr @_ZTV30btBox2dBox2dCollisionAlgorithm, i64 16), ptr %0, align 8, !tbaa !4
  %6 = getelementptr inbounds nuw i8, ptr %0, i64 16
  store i8 0, ptr %6, align 8, !tbaa !7
  %7 = getelementptr inbounds nuw i8, ptr %0, i64 24
  store ptr %1, ptr %7, align 8, !tbaa !16
  %.not = icmp eq ptr %1, null
  br i1 %.not, label %8, label %31

8:                                                ; preds = %5
  %9 = getelementptr inbounds nuw i8, ptr %0, i64 8
  %10 = load ptr, ptr %9, align 8, !tbaa !17
  %11 = getelementptr inbounds nuw i8, ptr %3, i64 16
  %12 = load ptr, ptr %11, align 8, !tbaa !18
  %13 = getelementptr inbounds nuw i8, ptr %4, i64 16
  %14 = load ptr, ptr %13, align 8, !tbaa !18
  %15 = load ptr, ptr %10, align 8, !tbaa !4
  %16 = getelementptr inbounds nuw i8, ptr %15, i64 48
  %17 = load ptr, ptr %16, align 8
  %18 = invoke noundef zeroext i1 %17(ptr noundef nonnull align 8 dereferenceable(8) %10, ptr noundef %12, ptr noundef %14)
          to label %19 unwind label %29

19:                                               ; preds = %8
  br i1 %18, label %20, label %31

20:                                               ; preds = %19
  %21 = load ptr, ptr %9, align 8, !tbaa !17
  %22 = load ptr, ptr %11, align 8, !tbaa !18
  %23 = load ptr, ptr %13, align 8, !tbaa !18
  %24 = load ptr, ptr %21, align 8, !tbaa !4
  %25 = getelementptr inbounds nuw i8, ptr %24, i64 24
  %26 = load ptr, ptr %25, align 8
  %27 = invoke noundef ptr %26(ptr noundef nonnull align 8 dereferenceable(8) %21, ptr noundef %22, ptr noundef %23)
          to label %28 unwind label %29

28:                                               ; preds = %20
  store ptr %27, ptr %7, align 8, !tbaa !16
  store i8 1, ptr %6, align 8, !tbaa !7
  br label %31

29:                                               ; preds = %20, %8
  %30 = landingpad { ptr, i32 }
          cleanup
  tail call void @_ZN30btActivatingCollisionAlgorithmD2Ev(ptr noundef nonnull align 8 dereferenceable(16) %0) #16
  resume { ptr, i32 } %30

31:                                               ; preds = %28, %19, %5
  ret void
}